target datalayout = "e-m:e-p270:32:32-p271:32:32-p272:64:64-i64:64-i128:128-f80:128-n8:16:32:64-S128"
target triple = "x86_64-pc-linux-gnu"

%"class.google::protobuf::io::ArrayInputStream" = type { %"class.google::protobuf::io::ZeroCopyInputStream", ptr, i32, i32, i32, i32 }
%"class.google::protobuf::io::ZeroCopyInputStream" = type { ptr }

; Function Attrs: inlinehint mustprogress nounwind uwtable
define linkonce_odr noundef nonnull align 4 dereferenceable(4) ptr @_ZSt3minIiERKT_S2_S2_(ptr noundef nonnull align 4 dereferenceable(4) %0, ptr noundef nonnull align 4 dereferenceable(4) %1) #6 comdat {
  %3 = alloca ptr, align 8
  %4 = alloca ptr, align 8
  %5 = alloca ptr, align 8
  store ptr %0, ptr %4, align 8, !tbaa !25
  store ptr %1, ptr %5, align 8, !tbaa !25
  %6 = load ptr, ptr %5, align 8, !tbaa !25
  %7 = load i32, ptr %6, align 4, !tbaa !9
  %8 = load ptr, ptr %4, align 8, !tbaa !25
  %9 = load i32, ptr %8, align 4, !tbaa !9
  %10 = icmp slt i32 %7, %9
  br i1 %10, label %11, label %13

11:                                               ; preds = %2
  %12 = load ptr, ptr %5, align 8, !tbaa !25
  store ptr %12, ptr %3, align 8
  br label %15

13:                                               ; preds = %2
  %14 = load ptr, ptr %4, align 8, !tbaa !25
  store ptr %14, ptr %3, align 8
  br label %15

15:                                               ; preds = %13, %11
  %16 = load ptr, ptr %3, align 8
  ret ptr %16
}

; Function Attrs: mustprogress uwtable
define hidden noundef zeroext i1 @_ZN6google8protobuf2io16ArrayInputStream4NextEPPKvPi(ptr noundef nonnull align 8 dereferenceable(32) %0, ptr noundef %1, ptr noundef %2) unnamed_addr #4 align 2 {
  %4 = alloca i1, align 1
  %5 = alloca ptr, align 8
  %6 = alloca ptr, align 8
  %7 = alloca ptr, align 8
  %8 = alloca i32, align 4
  store ptr %0, ptr %5, align 8, !tbaa !3
  store ptr %1, ptr %6, align 8, !tbaa !23
  store ptr %2, ptr %7, align 8, !tbaa !25
  %9 = load ptr, ptr %5, align 8
  %10 = getelementptr inbounds nuw %"class.google::protobuf::io::ArrayInputStream", ptr %9, i32 0, i32 4
  %11 = load i32, ptr %10, align 8, !tbaa !19
  %12 = getelementptr inbounds nuw %"class.google::protobuf::io::ArrayInputStream", ptr %9, i32 0, i32 2
  %13 = load i32, ptr %12, align 8, !tbaa !17
  %14 = icmp slt i32 %11, %13
  br i1 %14, label %15, label %40

15:                                               ; preds = %3
  %16 = getelementptr inbounds nuw %"class.google::protobuf::io::ArrayInputStream", ptr %9, i32 0, i32 3
  call void @llvm.lifetime.start.p0(i64 4, ptr %8) #3
  %17 = getelementptr inbounds nuw %"class.google::protobuf::io::ArrayInputStream", ptr %9, i32 0, i32 2
  %18 = load i32, ptr %17, align 8, !tbaa !17
  %19 = getelementptr inbounds nuw %"class.google::protobuf::io::ArrayInputStream", ptr %9, i32 0, i32 4
  %20 = load i32, ptr %19, align 8, !tbaa !19
  %21 = sub nsw i32 %18, %20
  store i32 %21, ptr %8, align 4, !tbaa !9
  %22 = call noundef nonnull align 4 dereferenceable(4) ptr @_ZSt3minIiERKT_S2_S2_(ptr noundef nonnull align 4 dereferenceable(4) %16, ptr noundef nonnull align 4 dereferenceable(4) %8)
  %23 = load i32, ptr %22, align 4, !tbaa !9
  %24 = getelementptr inbounds nuw %"class.google::protobuf::io::ArrayInputStream", ptr %9, i32 0, i32 5
  store i32 %23, ptr %24, align 4, !tbaa !20
  call void @llvm.lifetime.end.p0(i64 4, ptr %8) #3
  %25 = getelementptr inbounds nuw %"class.google::protobuf::io::ArrayInputStream", ptr %9, i32 0, i32 1
  %26 = load ptr, ptr %25, align 8, !tbaa !13
  %27 = getelementptr inbounds nuw %"class.google::protobuf::io::ArrayInputStream", ptr %9, i32 0, i32 4
  %28 = load i32, ptr %27, align 8, !tbaa !19
  %29 = sext i32 %28 to i64
  %30 = getelementptr inbounds i8, ptr %26, i64 %29
  %31 = load ptr, ptr %6, align 8, !tbaa !23
  store ptr %30, ptr %31, align 8, !tbaa !8
  %32 = getelementptr inbounds nuw %"class.google::protobuf::io::ArrayInputStream", ptr %9, i32 0, i32 5
  %33 = load i32, ptr %32, align 4, !tbaa !20
  %34 = load ptr, ptr %7, align 8, !tbaa !25
  store i32 %33, ptr %34, align 4, !tbaa !9
  %35 = getelementptr inbounds nuw %"class.google::protobuf::io::ArrayInputStream", ptr %9, i32 0, i32 5
  %36 = load i32, ptr %35, align 4, !tbaa !20
  %37 = getelementptr inbounds nuw %"class.google::protobuf::io::ArrayInputStream", ptr %9, i32 0, i32 4
  %38 = load i32, ptr %37, align 8, !tbaa !19
  %39 = add nsw i32 %38, %36
  store i32 %39, ptr %37, align 8, !tbaa !19
  store i1 true, ptr %4, align 1
  br label %42

40:                                               ; preds = %3
  %41 = getelementptr inbounds nuw %"class.google::protobuf::io::ArrayInputStream", ptr %9, i32 0, i32 5
  store i32 0, ptr %41, align 4, !tbaa !20
  store i1 false, ptr %4, align 1
  br label %42

42:                                               ; preds = %40, %15
  %43 = load i1, ptr %4, align 1
  ret i1 %43
}